target datalayout = "e-m:e-p270:32:32-p271:32:32-p272:64:64-i64:64-i128:128-f80:128-n8:16:32:64-S128"
target triple = "x86_64-pc-linux-gnu"

%struct.ForeignScan = type { %struct.Scan, i32, i32, i32, i32, ptr, ptr, ptr, ptr, ptr, ptr, i8 }
%struct.Scan = type { %struct.Plan, i32 }
%struct.Plan = type { i32, i32, double, double, double, i32, i8, i8, i8, i32, ptr, ptr, ptr, ptr, ptr, ptr, ptr }
%struct.ForeignScanState = type { %struct.ScanState, ptr, i64, ptr, ptr, ptr }
%struct.ScanState = type { %struct.PlanState, ptr, ptr, ptr }
%struct.PlanState = type { i32, ptr, ptr, ptr, ptr, ptr, ptr, ptr, ptr, ptr, ptr, ptr, ptr, ptr, ptr, ptr, ptr, ptr, i8, ptr, ptr, ptr, ptr, ptr, i8, i8, i8, i8, i8, i8, i8, i8 }
%struct.RelationData = type { %struct.RelFileLocator, ptr, i32, i32, i8, i8, i8, i8, i8, i32, i32, i32, i32, ptr, ptr, i32, %struct.LockInfoData, ptr, ptr, ptr, ptr, ptr, i8, ptr, ptr, ptr, ptr, ptr, ptr, i32, ptr, i8, ptr, ptr, i32, i8, i32, ptr, i8, ptr, ptr, ptr, ptr, ptr, ptr, ptr, i32, ptr, ptr, ptr, ptr, ptr, ptr, ptr, ptr, ptr, ptr, ptr, ptr, ptr, ptr, ptr, ptr, ptr, ptr, ptr, i32, i8, ptr }
%struct.RelFileLocator = type { i32, i32, i32 }
%struct.LockInfoData = type { %struct.LockRelId }
%struct.LockRelId = type { i32, i32 }
%struct.FdwRoutine = type { i32, ptr, ptr, ptr, ptr, ptr, ptr, ptr, ptr, ptr, ptr, ptr, ptr, ptr, ptr, ptr, ptr, ptr, ptr, ptr, ptr, ptr, ptr, ptr, ptr, ptr, ptr, ptr, ptr, ptr, ptr, ptr, ptr, ptr, ptr, ptr, ptr, ptr, ptr, ptr, ptr, ptr, ptr, ptr, ptr, ptr }
%struct.ExprContext = type { i32, ptr, ptr, ptr, ptr, ptr, ptr, ptr, ptr, ptr, i64, i8, i64, i8, ptr, ptr, ptr, ptr }
%struct.TupleTableSlot = type { i32, i16, i16, ptr, ptr, ptr, ptr, ptr, %struct.ItemPointerData, i32 }
%struct.ItemPointerData = type { %struct.BlockIdData, i16 }
%struct.BlockIdData = type { i16, i16 }

@CurrentMemoryContext = external global ptr, align 8

; Function Attrs: inlinehint nounwind uwtable
define internal ptr @MemoryContextSwitchTo(ptr noundef %0) #2 {
  %2 = alloca ptr, align 8
  %3 = alloca ptr, align 8
  store ptr %0, ptr %2, align 8
  call void @llvm.lifetime.start.p0(i64 8, ptr %3) #5
  %4 = load ptr, ptr @CurrentMemoryContext, align 8
  store ptr %4, ptr %3, align 8
  %5 = load ptr, ptr %2, align 8
  store ptr %5, ptr @CurrentMemoryContext, align 8
  %6 = load ptr, ptr %3, align 8
  call void @llvm.lifetime.end.p0(i64 8, ptr %3) #5
  ret ptr %6
}

; Function Attrs: nounwind uwtable
define internal ptr @ForeignNext(ptr noundef %0) #0 {
  %2 = alloca ptr, align 8
  %3 = alloca ptr, align 8
  %4 = alloca ptr, align 8
  %5 = alloca ptr, align 8
  %6 = alloca ptr, align 8
  store ptr %0, ptr %2, align 8
  call void @llvm.lifetime.start.p0(i64 8, ptr %3) #5
  call void @llvm.lifetime.start.p0(i64 8, ptr %4) #5
  %7 = load ptr, ptr %2, align 8
  %8 = getelementptr inbounds nuw %struct.ForeignScanState, ptr %7, i32 0, i32 0
  %9 = getelementptr inbounds nuw %struct.ScanState, ptr %8, i32 0, i32 0
  %10 = getelementptr inbounds nuw %struct.PlanState, ptr %9, i32 0, i32 1
  %11 = load ptr, ptr %10, align 8
  store ptr %11, ptr %4, align 8
  call void @llvm.lifetime.start.p0(i64 8, ptr %5) #5
  %12 = load ptr, ptr %2, align 8
  %13 = getelementptr inbounds nuw %struct.ForeignScanState, ptr %12, i32 0, i32 0
  %14 = getelementptr inbounds nuw %struct.ScanState, ptr %13, i32 0, i32 0
  %15 = getelementptr inbounds nuw %struct.PlanState, ptr %14, i32 0, i32 16
  %16 = load ptr, ptr %15, align 8
  store ptr %16, ptr %5, align 8
  call void @llvm.lifetime.start.p0(i64 8, ptr %6) #5
  %17 = load ptr, ptr %5, align 8
  %18 = getelementptr inbounds nuw %struct.ExprContext, ptr %17, i32 0, i32 5
  %19 = load ptr, ptr %18, align 8
  %20 = call ptr @MemoryContextSwitchTo(ptr noundef %19)
  store ptr %20, ptr %6, align 8
  %21 = load ptr, ptr %4, align 8
  %22 = getelementptr inbounds nuw %struct.ForeignScan, ptr %21, i32 0, i32 1
  %23 = load i32, ptr %22, align 8
  %24 = icmp ne i32 %23, 1
  br i1 %24, label %25, label %33

25:                                               ; preds = %1
  %26 = load ptr, ptr %2, align 8
  %27 = getelementptr inbounds nuw %struct.ForeignScanState, ptr %26, i32 0, i32 4
  %28 = load ptr, ptr %27, align 8
  %29 = getelementptr inbounds nuw %struct.FdwRoutine, ptr %28, i32 0, i32 24
  %30 = load ptr, ptr %29, align 8
  %31 = load ptr, ptr %2, align 8
  %32 = call ptr %30(ptr noundef %31)
  store ptr %32, ptr %3, align 8
  br label %41

33:                                               ; preds = %1
  %34 = load ptr, ptr %2, align 8
  %35 = getelementptr inbounds nuw %struct.ForeignScanState, ptr %34, i32 0, i32 4
  %36 = load ptr, ptr %35, align 8
  %37 = getelementptr inbounds nuw %struct.FdwRoutine, ptr %36, i32 0, i32 5
  %38 = load ptr, ptr %37, align 8
  %39 = load ptr, ptr %2, align 8
  %40 = call ptr %38(ptr noundef %39)
  store ptr %40, ptr %3, align 8
  br label %41

41:                                               ; preds = %33, %25
  %42 = load ptr, ptr %6, align 8
  %43 = call ptr @MemoryContextSwitchTo(ptr noundef %42)
  %44 = load ptr, ptr %4, align 8
  %45 = getelementptr inbounds nuw %struct.ForeignScan, ptr %44, i32 0, i32 11
  %46 = load i8, ptr %45, align 8, !range !4, !noundef !5
  %47 = trunc i8 %46 to i1
  br i1 %47, label %48, label %67

48:                                               ; preds = %41
  %49 = load ptr, ptr %3, align 8
  %50 = icmp eq ptr %49, null
  br i1 %50, label %67, label %51

51:                                               ; preds = %48
  %52 = load ptr, ptr %3, align 8
  %53 = getelementptr inbounds nuw %struct.TupleTableSlot, ptr %52, i32 0, i32 1
  %54 = load i16, ptr %53, align 4
  %55 = zext i16 %54 to i32
  %56 = and i32 %55, 2
  %57 = icmp ne i32 %56, 0
  br i1 %57, label %67, label %58

58:                                               ; preds = %51
  %59 = load ptr, ptr %2, align 8
  %60 = getelementptr inbounds nuw %struct.ForeignScanState, ptr %59, i32 0, i32 0
  %61 = getelementptr inbounds nuw %struct.ScanState, ptr %60, i32 0, i32 1
  %62 = load ptr, ptr %61, align 8
  %63 = getelementptr inbounds nuw %struct.RelationData, ptr %62, i32 0, i32 15
  %64 = load i32, ptr %63, align 8
  %65 = load ptr, ptr %3, align 8
  %66 = getelementptr inbounds nuw %struct.TupleTableSlot, ptr %65, i32 0, i32 9
  store i32 %64, ptr %66, align 8
  br label %67

67:                                               ; preds = %58, %51, %48, %41
  %68 = load ptr, ptr %3, align 8
  call void @llvm.lifetime.end.p0(i64 8, ptr %6) #5
  call void @llvm.lifetime.end.p0(i64 8, ptr %5) #5
  call void @llvm.lifetime.end.p0(i64 8, ptr %4) #5
  call void @llvm.lifetime.end.p0(i64 8, ptr %3) #5
  ret ptr %68
}