; Function Attrs: nounwind uwtable
define internal ptr @ForeignNext(ptr noundef %0) #0 {
  %2 = getelementptr inbounds nuw i8, ptr %0, i64 8
  %3 = load ptr, ptr %2, align 8
  %4 = getelementptr inbounds nuw i8, ptr %0, i64 128
  %5 = load ptr, ptr %4, align 8
  %6 = getelementptr inbounds nuw i8, ptr %5, i64 40
  %7 = load ptr, ptr %6, align 8
  %8 = load ptr, ptr @CurrentMemoryContext, align 8
  store ptr %7, ptr @CurrentMemoryContext, align 8
  %9 = getelementptr inbounds nuw i8, ptr %3, i64 112
  %10 = load i32, ptr %9, align 8
  %.not16 = icmp eq i32 %10, 1
  %11 = getelementptr inbounds nuw i8, ptr %0, i64 248
  %12 = load ptr, ptr %11, align 8
  %. = select i1 %.not16, i64 40, i64 192
  %13 = getelementptr inbounds nuw i8, ptr %12, i64 %.
  %14 = load ptr, ptr %13, align 8
  %15 = tail call ptr %14(ptr noundef nonnull %0) #5
  store ptr %8, ptr @CurrentMemoryContext, align 8
  %16 = getelementptr inbounds nuw i8, ptr %3, i64 176
  %17 = load i8, ptr %16, align 8, !range !4, !noundef !5
  %18 = trunc nuw i8 %17 to i1
  %19 = icmp ne ptr %15, null
  %or.cond.not = select i1 %18, i1 %19, i1 false
  br i1 %or.cond.not, label %20, label %30

20:                                               ; preds = %1
  %21 = getelementptr inbounds nuw i8, ptr %15, i64 4
  %22 = load i16, ptr %21, align 4
  %23 = and i16 %22, 2
  %.not = icmp eq i16 %23, 0
  br i1 %.not, label %24, label %30

24:                                               ; preds = %20
  %25 = getelementptr inbounds nuw i8, ptr %0, i64 200
  %26 = load ptr, ptr %25, align 8
  %27 = getelementptr inbounds nuw i8, ptr %26, i64 72
  %28 = load i32, ptr %27, align 8
  %29 = getelementptr inbounds nuw i8, ptr %15, i64 56
  store i32 %28, ptr %29, align 8
  br label %30

30:                                               ; preds = %24, %20, %1
  ret ptr %15
}